target datalayout = "e-m:e-p270:32:32-p271:32:32-p272:64:64-i64:64-i128:128-f80:128-n8:16:32:64-S128"
target triple = "x86_64-pc-linux-gnu"

@.str = private unnamed_addr constant [33 x i8] c"../openssl/crypto/bio/bio_sock.c\00", align 1
@.str.1 = private unnamed_addr constant [6 x i8] c"host=\00", align 1
@__func__.BIO_get_port = private unnamed_addr constant [13 x i8] c"BIO_get_port\00", align 1

; Function Attrs: inlinehint nounwind uwtable
define internal zeroext i16 @__bswap_16(i16 noundef zeroext %0) #4 {
  %2 = alloca i16, align 2
  store i16 %0, ptr %2, align 2, !tbaa !16
  %3 = load i16, ptr %2, align 2, !tbaa !16
  %4 = zext i16 %3 to i32
  %5 = ashr i32 %4, 8
  %6 = and i32 %5, 255
  %7 = load i16, ptr %2, align 2, !tbaa !16
  %8 = zext i16 %7 to i32
  %9 = and i32 %8, 255
  %10 = shl i32 %9, 8
  %11 = or i32 %6, %10
  %12 = trunc i32 %11 to i16
  ret i16 %12
}

; Function Attrs: nounwind uwtable
define i32 @BIO_sock_init() #0 {
  ret i32 1
}

; Function Attrs: nounwind uwtable
define i32 @BIO_get_port(ptr noundef %0, ptr noundef %1) #0 {
  %3 = alloca i32, align 4
  %4 = alloca ptr, align 8
  %5 = alloca ptr, align 8
  %6 = alloca ptr, align 8
  %7 = alloca i32, align 4
  %8 = alloca i32, align 4
  store ptr %0, ptr %4, align 8, !tbaa !3
  store ptr %1, ptr %5, align 8, !tbaa !14
  call void @llvm.lifetime.start.p0(i64 8, ptr %6) #8
  store ptr null, ptr %6, align 8, !tbaa !8
  call void @llvm.lifetime.start.p0(i64 4, ptr %7) #8
  store i32 0, ptr %7, align 4, !tbaa !10
  %9 = load ptr, ptr %4, align 8, !tbaa !3
  %10 = icmp eq ptr %9, null
  br i1 %10, label %11, label %12

11:                                               ; preds = %2
  call void @ERR_new()
  call void @ERR_set_debug(ptr noundef @.str, i32 noundef 80, ptr noundef @__func__.BIO_get_port)
  call void (i32, i32, ptr, ...) @ERR_set_error(i32 noundef 32, i32 noundef 113, ptr noundef null)
  store i32 0, ptr %3, align 4
  store i32 1, ptr %8, align 4
  br label %37

12:                                               ; preds = %2
  %13 = call i32 @BIO_sock_init()
  %14 = icmp ne i32 %13, 1
  br i1 %14, label %15, label %16

15:                                               ; preds = %12
  store i32 0, ptr %3, align 4
  store i32 1, ptr %8, align 4
  br label %37

16:                                               ; preds = %12
  %17 = load ptr, ptr %4, align 8, !tbaa !3
  %18 = call i32 @BIO_lookup(ptr noundef null, ptr noundef %17, i32 noundef 0, i32 noundef 2, i32 noundef 1, ptr noundef %6)
  %19 = icmp ne i32 %18, 0
  br i1 %19, label %20, label %33

20:                                               ; preds = %16
  %21 = load ptr, ptr %6, align 8, !tbaa !8
  %22 = call i32 @BIO_ADDRINFO_family(ptr noundef %21)
  %23 = icmp ne i32 %22, 2
  br i1 %23, label %24, label %25

24:                                               ; preds = %20
  call void @ERR_new()
  call void @ERR_set_debug(ptr noundef @.str, i32 noundef 89, ptr noundef @__func__.BIO_get_port)
  call void (i32, i32, ptr, ...) @ERR_set_error(i32 noundef 32, i32 noundef 141, ptr noundef null)
  br label %31

25:                                               ; preds = %20
  %26 = load ptr, ptr %6, align 8, !tbaa !8
  %27 = call ptr @BIO_ADDRINFO_address(ptr noundef %26)
  %28 = call zeroext i16 @BIO_ADDR_rawport(ptr noundef %27)
  %29 = call zeroext i16 @__bswap_16(i16 noundef zeroext %28)
  %30 = load ptr, ptr %5, align 8, !tbaa !14
  store i16 %29, ptr %30, align 2, !tbaa !16
  store i32 1, ptr %7, align 4, !tbaa !10
  br label %31

31:                                               ; preds = %25, %24
  %32 = load ptr, ptr %6, align 8, !tbaa !8
  call void @BIO_ADDRINFO_free(ptr noundef %32)
  br label %35

33:                                               ; preds = %16
  %34 = load ptr, ptr %4, align 8, !tbaa !3
  call void (i32, ...) @ERR_add_error_data(i32 noundef 2, ptr noundef @.str.1, ptr noundef %34)
  br label %35

35:                                               ; preds = %33, %31
  %36 = load i32, ptr %7, align 4, !tbaa !10
  store i32 %36, ptr %3, align 4
  store i32 1, ptr %8, align 4
  br label %37

37:                                               ; preds = %35, %15, %11
  call void @llvm.lifetime.end.p0(i64 4, ptr %7) #8
  call void @llvm.lifetime.end.p0(i64 8, ptr %6) #8
  %38 = load i32, ptr %3, align 4
  ret i32 %38
}