; Function Attrs: nounwind uwtable
define range(i32 0, 2) i32 @BIO_get_port(ptr noundef %0, ptr noundef writeonly captures(none) %1) local_unnamed_addr #0 {
  %3 = alloca ptr, align 8
  call void @llvm.lifetime.start.p0(i64 8, ptr nonnull %3) #9
  store ptr null, ptr %3, align 8, !tbaa !3
  %4 = icmp eq ptr %0, null
  br i1 %4, label %5, label %6

5:                                                ; preds = %2
  tail call void @ERR_new() #9
  tail call void @ERR_set_debug(ptr noundef nonnull @.str, i32 noundef 80, ptr noundef nonnull @__func__.BIO_get_port) #9
  tail call void (i32, i32, ptr, ...) @ERR_set_error(i32 noundef 32, i32 noundef 113, ptr noundef null) #9
  br label %19

6:                                                ; preds = %2
  %7 = call i32 @BIO_lookup(ptr noundef null, ptr noundef nonnull %0, i32 noundef 0, i32 noundef 2, i32 noundef 1, ptr noundef nonnull %3) #9
  %.not = icmp eq i32 %7, 0
  br i1 %.not, label %18, label %8

8:                                                ; preds = %6
  %9 = load ptr, ptr %3, align 8, !tbaa !3
  %10 = call i32 @BIO_ADDRINFO_family(ptr noundef %9) #9
  %.not7 = icmp eq i32 %10, 2
  br i1 %.not7, label %12, label %11

11:                                               ; preds = %8
  call void @ERR_new() #9
  call void @ERR_set_debug(ptr noundef nonnull @.str, i32 noundef 89, ptr noundef nonnull @__func__.BIO_get_port) #9
  call void (i32, i32, ptr, ...) @ERR_set_error(i32 noundef 32, i32 noundef 141, ptr noundef null) #9
  br label %16

12:                                               ; preds = %8
  %13 = load ptr, ptr %3, align 8, !tbaa !3
  %14 = call ptr @BIO_ADDRINFO_address(ptr noundef %13) #9
  %15 = call zeroext i16 @BIO_ADDR_rawport(ptr noundef %14) #9
  %rev.i = call noundef i16 @llvm.bswap.i16(i16 %15)
  store i16 %rev.i, ptr %1, align 2, !tbaa !9
  br label %16

16:                                               ; preds = %12, %11
  %.0 = phi i32 [ 0, %11 ], [ 1, %12 ]
  %17 = load ptr, ptr %3, align 8, !tbaa !3
  call void @BIO_ADDRINFO_free(ptr noundef %17) #9
  br label %19

18:                                               ; preds = %6
  call void (i32, ...) @ERR_add_error_data(i32 noundef 2, ptr noundef nonnull @.str.1, ptr noundef nonnull %0) #9
  br label %19

19:                                               ; preds = %16, %18, %5
  %.05 = phi i32 [ 0, %5 ], [ %.0, %16 ], [ 0, %18 ]
  call void @llvm.lifetime.end.p0(i64 8, ptr nonnull %3) #9
  ret i32 %.05
}